target datalayout = "e-m:e-p270:32:32-p271:32:32-p272:64:64-i64:64-i128:128-f80:128-n8:16:32:64-S128"
target triple = "x86_64-pc-linux-gnu"

%struct.WebPChunk = type { i32, i32, %struct.WebPData, ptr }
%struct.WebPData = type { ptr, i64 }
%struct.WebPMuxImage = type { ptr, ptr, ptr, ptr, i32, i32, i32, i32, ptr }

; Function Attrs: inlinehint nounwind uwtable
define internal i64 @SizeWithPadding(i64 noundef %0) #3 {
  %2 = alloca i64, align 8
  store i64 %0, ptr %2, align 8, !tbaa !31
  %3 = load i64, ptr %2, align 8, !tbaa !31
  %4 = add i64 %3, 1
  %5 = and i64 %4, 4294967294
  %6 = add i64 8, %5
  ret i64 %6
}

; Function Attrs: nounwind uwtable
define hidden i64 @ChunkListDiskSize(ptr noundef %0) #0 {
  %2 = alloca ptr, align 8
  %3 = alloca i64, align 8
  store ptr %0, ptr %2, align 8, !tbaa !3
  call void @llvm.lifetime.start.p0(i64 8, ptr %3) #6
  store i64 0, ptr %3, align 8, !tbaa !31
  br label %4

4:                                                ; preds = %7, %1
  %5 = load ptr, ptr %2, align 8, !tbaa !3
  %6 = icmp ne ptr %5, null
  br i1 %6, label %7, label %15

7:                                                ; preds = %4
  %8 = load ptr, ptr %2, align 8, !tbaa !3
  %9 = call i64 @ChunkDiskSize(ptr noundef %8)
  %10 = load i64, ptr %3, align 8, !tbaa !31
  %11 = add i64 %10, %9
  store i64 %11, ptr %3, align 8, !tbaa !31
  %12 = load ptr, ptr %2, align 8, !tbaa !3
  %13 = getelementptr inbounds nuw %struct.WebPChunk, ptr %12, i32 0, i32 3
  %14 = load ptr, ptr %13, align 8, !tbaa !15
  store ptr %14, ptr %2, align 8, !tbaa !3
  br label %4, !llvm.loop !43

15:                                               ; preds = %4
  %16 = load i64, ptr %3, align 8, !tbaa !31
  call void @llvm.lifetime.end.p0(i64 8, ptr %3) #6
  ret i64 %16
}

; Function Attrs: inlinehint nounwind uwtable
define internal i64 @ChunkDiskSize(ptr noundef %0) #3 {
  %2 = alloca ptr, align 8
  %3 = alloca i64, align 8
  store ptr %0, ptr %2, align 8, !tbaa !3
  call void @llvm.lifetime.start.p0(i64 8, ptr %3) #6
  %4 = load ptr, ptr %2, align 8, !tbaa !3
  %5 = getelementptr inbounds nuw %struct.WebPChunk, ptr %4, i32 0, i32 2
  %6 = getelementptr inbounds nuw %struct.WebPData, ptr %5, i32 0, i32 1
  %7 = load i64, ptr %6, align 8, !tbaa !41
  store i64 %7, ptr %3, align 8, !tbaa !31
  %8 = load i64, ptr %3, align 8, !tbaa !31
  %9 = call i64 @SizeWithPadding(i64 noundef %8)
  call void @llvm.lifetime.end.p0(i64 8, ptr %3) #6
  ret i64 %9
}

; Function Attrs: nounwind uwtable
define hidden i64 @MuxImageDiskSize(ptr noundef %0) #0 {
  %2 = alloca ptr, align 8
  %3 = alloca i64, align 8
  store ptr %0, ptr %2, align 8, !tbaa !44
  call void @llvm.lifetime.start.p0(i64 8, ptr %3) #6
  store i64 0, ptr %3, align 8, !tbaa !31
  %4 = load ptr, ptr %2, align 8, !tbaa !44
  %5 = getelementptr inbounds nuw %struct.WebPMuxImage, ptr %4, i32 0, i32 0
  %6 = load ptr, ptr %5, align 8, !tbaa !56
  %7 = icmp ne ptr %6, null
  br i1 %7, label %8, label %15

8:                                                ; preds = %1
  %9 = load ptr, ptr %2, align 8, !tbaa !44
  %10 = getelementptr inbounds nuw %struct.WebPMuxImage, ptr %9, i32 0, i32 0
  %11 = load ptr, ptr %10, align 8, !tbaa !56
  %12 = call i64 @ChunkDiskSize(ptr noundef %11)
  %13 = load i64, ptr %3, align 8, !tbaa !31
  %14 = add i64 %13, %12
  store i64 %14, ptr %3, align 8, !tbaa !31
  br label %15

15:                                               ; preds = %8, %1
  %16 = load ptr, ptr %2, align 8, !tbaa !44
  %17 = getelementptr inbounds nuw %struct.WebPMuxImage, ptr %16, i32 0, i32 1
  %18 = load ptr, ptr %17, align 8, !tbaa !57
  %19 = icmp ne ptr %18, null
  br i1 %19, label %20, label %27

20:                                               ; preds = %15
  %21 = load ptr, ptr %2, align 8, !tbaa !44
  %22 = getelementptr inbounds nuw %struct.WebPMuxImage, ptr %21, i32 0, i32 1
  %23 = load ptr, ptr %22, align 8, !tbaa !57
  %24 = call i64 @ChunkDiskSize(ptr noundef %23)
  %25 = load i64, ptr %3, align 8, !tbaa !31
  %26 = add i64 %25, %24
  store i64 %26, ptr %3, align 8, !tbaa !31
  br label %27

27:                                               ; preds = %20, %15
  %28 = load ptr, ptr %2, align 8, !tbaa !44
  %29 = getelementptr inbounds nuw %struct.WebPMuxImage, ptr %28, i32 0, i32 2
  %30 = load ptr, ptr %29, align 8, !tbaa !58
  %31 = icmp ne ptr %30, null
  br i1 %31, label %32, label %39

32:                                               ; preds = %27
  %33 = load ptr, ptr %2, align 8, !tbaa !44
  %34 = getelementptr inbounds nuw %struct.WebPMuxImage, ptr %33, i32 0, i32 2
  %35 = load ptr, ptr %34, align 8, !tbaa !58
  %36 = call i64 @ChunkDiskSize(ptr noundef %35)
  %37 = load i64, ptr %3, align 8, !tbaa !31
  %38 = add i64 %37, %36
  store i64 %38, ptr %3, align 8, !tbaa !31
  br label %39

39:                                               ; preds = %32, %27
  %40 = load ptr, ptr %2, align 8, !tbaa !44
  %41 = getelementptr inbounds nuw %struct.WebPMuxImage, ptr %40, i32 0, i32 3
  %42 = load ptr, ptr %41, align 8, !tbaa !59
  %43 = icmp ne ptr %42, null
  br i1 %43, label %44, label %51

44:                                               ; preds = %39
  %45 = load ptr, ptr %2, align 8, !tbaa !44
  %46 = getelementptr inbounds nuw %struct.WebPMuxImage, ptr %45, i32 0, i32 3
  %47 = load ptr, ptr %46, align 8, !tbaa !59
  %48 = call i64 @ChunkListDiskSize(ptr noundef %47)
  %49 = load i64, ptr %3, align 8, !tbaa !31
  %50 = add i64 %49, %48
  store i64 %50, ptr %3, align 8, !tbaa !31
  br label %51

51:                                               ; preds = %44, %39
  %52 = load i64, ptr %3, align 8, !tbaa !31
  call void @llvm.lifetime.end.p0(i64 8, ptr %3) #6
  ret i64 %52
}