; Function Attrs: nofree norecurse nosync nounwind memory(read, inaccessiblemem: none) uwtable
define hidden i64 @MuxImageDiskSize(ptr noundef readonly captures(none) %0) local_unnamed_addr #8 {
  %2 = load ptr, ptr %0, align 8, !tbaa !45
  %.not = icmp eq ptr %2, null
  br i1 %.not, label %8, label %3

3:                                                ; preds = %1
  %4 = getelementptr i8, ptr %2, i64 16
  %.val20 = load i64, ptr %4, align 8, !tbaa !35
  %5 = add i64 %.val20, 1
  %6 = and i64 %5, 4294967294
  %7 = add nuw nsw i64 %6, 8
  br label %8

8:                                                ; preds = %3, %1
  %.0 = phi i64 [ %7, %3 ], [ 0, %1 ]
  %9 = getelementptr inbounds nuw i8, ptr %0, i64 8
  %10 = load ptr, ptr %9, align 8, !tbaa !46
  %.not16 = icmp eq ptr %10, null
  br i1 %.not16, label %17, label %11

11:                                               ; preds = %8
  %12 = getelementptr i8, ptr %10, i64 16
  %.val19 = load i64, ptr %12, align 8, !tbaa !35
  %13 = add i64 %.val19, 1
  %14 = and i64 %13, 4294967294
  %15 = add nuw nsw i64 %.0, 8
  %16 = add nuw nsw i64 %15, %14
  br label %17

17:                                               ; preds = %11, %8
  %.1 = phi i64 [ %16, %11 ], [ %.0, %8 ]
  %18 = getelementptr inbounds nuw i8, ptr %0, i64 16
  %19 = load ptr, ptr %18, align 8, !tbaa !47
  %.not17 = icmp eq ptr %19, null
  br i1 %.not17, label %26, label %20

20:                                               ; preds = %17
  %21 = getelementptr i8, ptr %19, i64 16
  %.val = load i64, ptr %21, align 8, !tbaa !35
  %22 = add i64 %.val, 1
  %23 = and i64 %22, 4294967294
  %24 = add nuw nsw i64 %.1, 8
  %25 = add nuw nsw i64 %24, %23
  br label %26

26:                                               ; preds = %20, %17
  %.2 = phi i64 [ %25, %20 ], [ %.1, %17 ]
  %27 = getelementptr inbounds nuw i8, ptr %0, i64 24
  %28 = load ptr, ptr %27, align 8, !tbaa !48
  %.not18 = icmp eq ptr %28, null
  br i1 %.not18, label %37, label %.lr.ph.i

.lr.ph.i:                                         ; preds = %26, %.lr.ph.i
  %.07.i = phi i64 [ %33, %.lr.ph.i ], [ 0, %26 ]
  %.046.i = phi ptr [ %35, %.lr.ph.i ], [ %28, %26 ]
  %29 = getelementptr i8, ptr %.046.i, i64 16
  %.04.val.i = load i64, ptr %29, align 8, !tbaa !35
  %30 = add i64 %.04.val.i, 1
  %31 = and i64 %30, 4294967294
  %32 = add i64 %.07.i, 8
  %33 = add i64 %32, %31
  %34 = getelementptr inbounds nuw i8, ptr %.046.i, i64 24
  %35 = load ptr, ptr %34, align 8, !tbaa !14
  %.not.i = icmp eq ptr %35, null
  br i1 %.not.i, label %ChunkListDiskSize.exit, label %.lr.ph.i, !llvm.loop !38

ChunkListDiskSize.exit:                           ; preds = %.lr.ph.i
  %36 = add i64 %33, %.2
  br label %37

37:                                               ; preds = %ChunkListDiskSize.exit, %26
  %.3 = phi i64 [ %36, %ChunkListDiskSize.exit ], [ %.2, %26 ]
  ret i64 %.3
}